; Function Attrs: nounwind uwtable
define range(i32 0, 2) i32 @ossl_statem_server_construct_message(ptr noundef %0, ptr noundef writeonly captures(none) %1, ptr noundef writeonly captures(none) %2) local_unnamed_addr #1 {
  %4 = getelementptr inbounds nuw i8, ptr %0, i64 172
  %5 = load i32, ptr %4, align 4, !tbaa !75
  switch i32 %5, label %6 [
    i32 39, label %7
    i32 23, label %15
    i32 21, label %16
    i32 24, label %17
    i32 25, label %18
    i32 44, label %19
    i32 27, label %20
    i32 28, label %21
    i32 29, label %22
    i32 37, label %23
    i32 38, label %24
    i32 40, label %25
    i32 50, label %26
    i32 41, label %27
    i32 46, label %28
  ]

6:                                                ; preds = %3
  tail call void @ERR_new() #12
  tail call void @ERR_set_debug(ptr noundef nonnull @.str.1, i32 noundef 1102, ptr noundef nonnull @__func__.ossl_statem_server_construct_message) #12
  tail call void (ptr, i32, i32, ptr, ...) @ossl_statem_fatal(ptr noundef nonnull %0, i32 noundef 80, i32 noundef 236, ptr noundef null) #12
  br label %29

7:                                                ; preds = %3
  %8 = getelementptr inbounds nuw i8, ptr %0, i64 24
  %9 = load ptr, ptr %8, align 8, !tbaa !3
  %10 = getelementptr inbounds nuw i8, ptr %9, i64 216
  %11 = load ptr, ptr %10, align 8, !tbaa !69
  %12 = getelementptr inbounds nuw i8, ptr %11, i64 80
  %13 = load i32, ptr %12, align 8, !tbaa !72
  %14 = and i32 %13, 8
  %.not = icmp eq i32 %14, 0
  %tls_construct_change_cipher_spec.dtls_construct_change_cipher_spec = select i1 %.not, ptr @tls_construct_change_cipher_spec, ptr @dtls_construct_change_cipher_spec
  store ptr %tls_construct_change_cipher_spec.dtls_construct_change_cipher_spec, ptr %1, align 8, !tbaa !135
  store i32 257, ptr %2, align 4, !tbaa !134
  br label %29

15:                                               ; preds = %3
  store ptr @dtls_construct_hello_verify_request, ptr %1, align 8, !tbaa !135
  store i32 3, ptr %2, align 4, !tbaa !134
  br label %29

16:                                               ; preds = %3
  store ptr null, ptr %1, align 8, !tbaa !135
  store i32 0, ptr %2, align 4, !tbaa !134
  br label %29

17:                                               ; preds = %3
  store ptr @tls_construct_server_hello, ptr %1, align 8, !tbaa !135
  store i32 2, ptr %2, align 4, !tbaa !134
  br label %29

18:                                               ; preds = %3
  store ptr @tls_construct_server_certificate, ptr %1, align 8, !tbaa !135
  store i32 11, ptr %2, align 4, !tbaa !134
  br label %29

19:                                               ; preds = %3
  store ptr @tls_construct_cert_verify, ptr %1, align 8, !tbaa !135
  store i32 15, ptr %2, align 4, !tbaa !134
  br label %29

20:                                               ; preds = %3
  store ptr @tls_construct_server_key_exchange, ptr %1, align 8, !tbaa !135
  store i32 12, ptr %2, align 4, !tbaa !134
  br label %29

21:                                               ; preds = %3
  store ptr @tls_construct_certificate_request, ptr %1, align 8, !tbaa !135
  store i32 13, ptr %2, align 4, !tbaa !134
  br label %29

22:                                               ; preds = %3
  store ptr @tls_construct_server_done, ptr %1, align 8, !tbaa !135
  store i32 14, ptr %2, align 4, !tbaa !134
  br label %29

23:                                               ; preds = %3
  store ptr @tls_construct_new_session_ticket, ptr %1, align 8, !tbaa !135
  store i32 4, ptr %2, align 4, !tbaa !134
  br label %29

24:                                               ; preds = %3
  store ptr @tls_construct_cert_status, ptr %1, align 8, !tbaa !135
  store i32 22, ptr %2, align 4, !tbaa !134
  br label %29

25:                                               ; preds = %3
  store ptr @tls_construct_finished, ptr %1, align 8, !tbaa !135
  store i32 20, ptr %2, align 4, !tbaa !134
  br label %29

26:                                               ; preds = %3
  store ptr null, ptr %1, align 8, !tbaa !135
  store i32 -1, ptr %2, align 4, !tbaa !134
  br label %29

27:                                               ; preds = %3
  store ptr @tls_construct_encrypted_extensions, ptr %1, align 8, !tbaa !135
  store i32 8, ptr %2, align 4, !tbaa !134
  br label %29

28:                                               ; preds = %3
  store ptr @tls_construct_key_update, ptr %1, align 8, !tbaa !135
  store i32 24, ptr %2, align 4, !tbaa !134
  br label %29

29:                                               ; preds = %7, %15, %16, %17, %18, %19, %20, %21, %22, %23, %24, %25, %26, %27, %28, %6
  %.0 = phi i32 [ 0, %6 ], [ 1, %28 ], [ 1, %27 ], [ 1, %26 ], [ 1, %25 ], [ 1, %24 ], [ 1, %23 ], [ 1, %22 ], [ 1, %21 ], [ 1, %20 ], [ 1, %19 ], [ 1, %18 ], [ 1, %17 ], [ 1, %16 ], [ 1, %15 ], [ 1, %7 ]
  ret i32 %.0
}